target datalayout = "e-m:e-p270:32:32-p271:32:32-p272:64:64-i64:64-i128:128-f80:128-n8:16:32:64-S128"
target triple = "x86_64-pc-linux-gnu"

%struct.sockaddr_in6 = type { i16, i16, i32, %struct.in6_addr, i32 }
%struct.in6_addr = type { %union.anon.19 }
%union.anon.19 = type { [4 x i32] }
%struct.in6_pktinfo = type { %struct.in6_addr, i32 }

; Function Attrs: nounwind sspstrong uwtable
define internal i64 @ancillary_ipv6_pktinfo_addr(i64 noundef %0) #0 {
  %2 = alloca i64, align 8
  %3 = alloca %struct.in6_pktinfo, align 4
  %4 = alloca %struct.sockaddr_in6, align 4
  store i64 %0, ptr %2, align 8, !tbaa !6
  call void @llvm.lifetime.start.p0(i64 20, ptr %3) #21
  call void @llvm.lifetime.start.p0(i64 28, ptr %4) #21
  %5 = load i64, ptr %2, align 8, !tbaa !6
  call void @extract_ipv6_pktinfo(i64 noundef %5, ptr noundef %3, ptr noundef %4)
  %6 = call i64 @rsock_addrinfo_new(ptr noundef %4, i32 noundef 28, i32 noundef 10, i32 noundef 0, i32 noundef 0, i64 noundef 4, i64 noundef 4)
  call void @llvm.lifetime.end.p0(i64 28, ptr %4) #21
  call void @llvm.lifetime.end.p0(i64 20, ptr %3) #21
  ret i64 %6
}