; Function Attrs: nounwind sspstrong uwtable
define internal i64 @ancillary_ipv6_pktinfo_addr(i64 noundef %0) #0 {
  %2 = alloca %struct.in6_pktinfo, align 4
  %3 = alloca %struct.sockaddr_in6, align 4
  call void @llvm.lifetime.start.p0(i64 20, ptr nonnull %2) #10
  call void @llvm.lifetime.start.p0(i64 28, ptr nonnull %3) #10
  call fastcc void @extract_ipv6_pktinfo(i64 noundef %0, ptr noundef %2, ptr noundef %3)
  %4 = call i64 @rsock_addrinfo_new(ptr noundef nonnull %3, i32 noundef 28, i32 noundef 10, i32 noundef 0, i32 noundef 0, i64 noundef 4, i64 noundef 4) #10
  call void @llvm.lifetime.end.p0(i64 28, ptr nonnull %3) #10
  call void @llvm.lifetime.end.p0(i64 20, ptr nonnull %2) #10
  ret i64 %4
}